target datalayout = "e-m:e-p270:32:32-p271:32:32-p272:64:64-i64:64-i128:128-f80:128-n8:16:32:64-S128"
target triple = "x86_64-pc-linux-gnu"

%struct.quic_demux_st = type { ptr, i64, i64, i64, ptr, ptr, ptr, ptr, %struct.ossl_list_st_urxe, %struct.ossl_list_st_urxe, i8 }
%struct.ossl_list_st_urxe = type { ptr, ptr, i64 }
%struct.quic_urxe_st = type { %struct.anon, i64, i64, i64, i64, i64, %union.bio_addr_st, %union.bio_addr_st, %struct.OSSL_TIME, i8, i8 }
%struct.anon = type { ptr, ptr }
%union.bio_addr_st = type { %struct.sockaddr_in6, [84 x i8] }
%struct.sockaddr_in6 = type { i16, i16, i32, %struct.in6_addr, i32 }
%struct.in6_addr = type { %union.anon }
%union.anon = type { [4 x i32] }
%struct.OSSL_TIME = type { i64 }

; Function Attrs: inlinehint nounwind uwtable
define internal void @ossl_list_urxe_insert_tail(ptr noundef %0, ptr noundef %1) #3 {
  %3 = alloca ptr, align 8
  %4 = alloca ptr, align 8
  store ptr %0, ptr %3, align 8, !tbaa !22
  store ptr %1, ptr %4, align 8, !tbaa !24
  %5 = load ptr, ptr %3, align 8, !tbaa !22
  %6 = getelementptr inbounds nuw %struct.ossl_list_st_urxe, ptr %5, i32 0, i32 1
  %7 = load ptr, ptr %6, align 8, !tbaa !57
  %8 = icmp ne ptr %7, null
  br i1 %8, label %9, label %16

9:                                                ; preds = %2
  %10 = load ptr, ptr %4, align 8, !tbaa !24
  %11 = load ptr, ptr %3, align 8, !tbaa !22
  %12 = getelementptr inbounds nuw %struct.ossl_list_st_urxe, ptr %11, i32 0, i32 1
  %13 = load ptr, ptr %12, align 8, !tbaa !57
  %14 = getelementptr inbounds nuw %struct.quic_urxe_st, ptr %13, i32 0, i32 0
  %15 = getelementptr inbounds nuw %struct.anon, ptr %14, i32 0, i32 0
  store ptr %10, ptr %15, align 8, !tbaa !56
  br label %16

16:                                               ; preds = %9, %2
  %17 = load ptr, ptr %3, align 8, !tbaa !22
  %18 = getelementptr inbounds nuw %struct.ossl_list_st_urxe, ptr %17, i32 0, i32 1
  %19 = load ptr, ptr %18, align 8, !tbaa !57
  %20 = load ptr, ptr %4, align 8, !tbaa !24
  %21 = getelementptr inbounds nuw %struct.quic_urxe_st, ptr %20, i32 0, i32 0
  %22 = getelementptr inbounds nuw %struct.anon, ptr %21, i32 0, i32 1
  store ptr %19, ptr %22, align 8, !tbaa !58
  %23 = load ptr, ptr %4, align 8, !tbaa !24
  %24 = getelementptr inbounds nuw %struct.quic_urxe_st, ptr %23, i32 0, i32 0
  %25 = getelementptr inbounds nuw %struct.anon, ptr %24, i32 0, i32 0
  store ptr null, ptr %25, align 8, !tbaa !56
  %26 = load ptr, ptr %4, align 8, !tbaa !24
  %27 = load ptr, ptr %3, align 8, !tbaa !22
  %28 = getelementptr inbounds nuw %struct.ossl_list_st_urxe, ptr %27, i32 0, i32 1
  store ptr %26, ptr %28, align 8, !tbaa !57
  %29 = load ptr, ptr %3, align 8, !tbaa !22
  %30 = getelementptr inbounds nuw %struct.ossl_list_st_urxe, ptr %29, i32 0, i32 0
  %31 = load ptr, ptr %30, align 8, !tbaa !31
  %32 = icmp eq ptr %31, null
  br i1 %32, label %33, label %37

33:                                               ; preds = %16
  %34 = load ptr, ptr %4, align 8, !tbaa !24
  %35 = load ptr, ptr %3, align 8, !tbaa !22
  %36 = getelementptr inbounds nuw %struct.ossl_list_st_urxe, ptr %35, i32 0, i32 0
  store ptr %34, ptr %36, align 8, !tbaa !31
  br label %37

37:                                               ; preds = %33, %16
  %38 = load ptr, ptr %3, align 8, !tbaa !22
  %39 = getelementptr inbounds nuw %struct.ossl_list_st_urxe, ptr %38, i32 0, i32 2
  %40 = load i64, ptr %39, align 8, !tbaa !59
  %41 = add i64 %40, 1
  store i64 %41, ptr %39, align 8, !tbaa !59
  ret void
}

; Function Attrs: nounwind uwtable
define void @ossl_quic_demux_release_urxe(ptr noundef %0, ptr noundef %1) #0 {
  %3 = alloca ptr, align 8
  %4 = alloca ptr, align 8
  store ptr %0, ptr %3, align 8, !tbaa !11
  store ptr %1, ptr %4, align 8, !tbaa !24
  %5 = load ptr, ptr %3, align 8, !tbaa !11
  %6 = getelementptr inbounds nuw %struct.quic_demux_st, ptr %5, i32 0, i32 8
  %7 = load ptr, ptr %4, align 8, !tbaa !24
  call void @ossl_list_urxe_insert_tail(ptr noundef %6, ptr noundef %7)
  %8 = load ptr, ptr %4, align 8, !tbaa !24
  %9 = getelementptr inbounds nuw %struct.quic_urxe_st, ptr %8, i32 0, i32 10
  store i8 0, ptr %9, align 1, !tbaa !32
  ret void
}