; Function Attrs: mustprogress nofree norecurse nosync nounwind willreturn memory(write, argmem: readwrite, inaccessiblemem: none) uwtable
define void @ossl_quic_demux_release_urxe(ptr noundef captures(none) %0, ptr noundef %1) local_unnamed_addr #5 {
  %3 = getelementptr inbounds nuw i8, ptr %0, i64 64
  %4 = getelementptr inbounds nuw i8, ptr %0, i64 72
  %5 = load ptr, ptr %4, align 8, !tbaa !22
  %.not.i = icmp eq ptr %5, null
  br i1 %.not.i, label %7, label %6

6:                                                ; preds = %2
  store ptr %1, ptr %5, align 8, !tbaa !18
  br label %7

7:                                                ; preds = %6, %2
  %8 = getelementptr inbounds nuw i8, ptr %1, i64 8
  store ptr %5, ptr %8, align 8, !tbaa !23
  store ptr null, ptr %1, align 8, !tbaa !18
  store ptr %1, ptr %4, align 8, !tbaa !22
  %9 = load ptr, ptr %3, align 8, !tbaa !17
  %10 = icmp eq ptr %9, null
  br i1 %10, label %11, label %ossl_list_urxe_insert_tail.exit

11:                                               ; preds = %7
  store ptr %1, ptr %3, align 8, !tbaa !17
  br label %ossl_list_urxe_insert_tail.exit

ossl_list_urxe_insert_tail.exit:                  ; preds = %7, %11
  %12 = getelementptr inbounds nuw i8, ptr %0, i64 80
  %13 = load i64, ptr %12, align 8, !tbaa !24
  %14 = add i64 %13, 1
  store i64 %14, ptr %12, align 8, !tbaa !24
  %15 = getelementptr inbounds nuw i8, ptr %1, i64 289
  store i8 0, ptr %15, align 1, !tbaa !31
  ret void
}